target datalayout = "e-m:e-p270:32:32-p271:32:32-p272:64:64-i64:64-i128:128-f80:128-n8:16:32:64-S128"
target triple = "x86_64-pc-linux-gnu"

%struct.Curl_llist = type { ptr, ptr, ptr, i64 }
%struct.Curl_llist_node = type { ptr, ptr, ptr, ptr }

; Function Attrs: nounwind uwtable
define hidden ptr @Curl_node_take_elem(ptr noundef %0) #0 {
  %2 = alloca ptr, align 8
  %3 = alloca ptr, align 8
  %4 = alloca ptr, align 8
  %5 = alloca ptr, align 8
  %6 = alloca i32, align 4
  store ptr %0, ptr %3, align 8, !tbaa !16
  call void @llvm.lifetime.start.p0(i64 8, ptr %4) #2
  call void @llvm.lifetime.start.p0(i64 8, ptr %5) #2
  %7 = load ptr, ptr %3, align 8, !tbaa !16
  %8 = icmp ne ptr %7, null
  br i1 %8, label %10, label %9

9:                                                ; preds = %1
  store ptr null, ptr %2, align 8
  store i32 1, ptr %6, align 4
  br label %104

10:                                               ; preds = %1
  %11 = load ptr, ptr %3, align 8, !tbaa !16
  %12 = getelementptr inbounds nuw %struct.Curl_llist_node, ptr %11, i32 0, i32 0
  %13 = load ptr, ptr %12, align 8, !tbaa !19
  store ptr %13, ptr %5, align 8, !tbaa !3
  br label %14

14:                                               ; preds = %10
  br label %15

15:                                               ; preds = %14
  br label %16

16:                                               ; preds = %15
  br label %17

17:                                               ; preds = %16
  br label %18

18:                                               ; preds = %17
  br label %19

19:                                               ; preds = %18
  br label %20

20:                                               ; preds = %19
  br label %21

21:                                               ; preds = %20
  br label %22

22:                                               ; preds = %21
  br label %23

23:                                               ; preds = %22
  br label %24

24:                                               ; preds = %23
  br label %25

25:                                               ; preds = %24
  %26 = load ptr, ptr %5, align 8, !tbaa !3
  %27 = icmp ne ptr %26, null
  br i1 %27, label %28, label %91

28:                                               ; preds = %25
  %29 = load ptr, ptr %3, align 8, !tbaa !16
  %30 = load ptr, ptr %5, align 8, !tbaa !3
  %31 = getelementptr inbounds nuw %struct.Curl_llist, ptr %30, i32 0, i32 0
  %32 = load ptr, ptr %31, align 8, !tbaa !14
  %33 = icmp eq ptr %29, %32
  br i1 %33, label %34, label %53

34:                                               ; preds = %28
  %35 = load ptr, ptr %3, align 8, !tbaa !16
  %36 = getelementptr inbounds nuw %struct.Curl_llist_node, ptr %35, i32 0, i32 3
  %37 = load ptr, ptr %36, align 8, !tbaa !21
  %38 = load ptr, ptr %5, align 8, !tbaa !3
  %39 = getelementptr inbounds nuw %struct.Curl_llist, ptr %38, i32 0, i32 0
  store ptr %37, ptr %39, align 8, !tbaa !14
  %40 = load ptr, ptr %5, align 8, !tbaa !3
  %41 = getelementptr inbounds nuw %struct.Curl_llist, ptr %40, i32 0, i32 0
  %42 = load ptr, ptr %41, align 8, !tbaa !14
  %43 = icmp ne ptr %42, null
  br i1 %43, label %47, label %44

44:                                               ; preds = %34
  %45 = load ptr, ptr %5, align 8, !tbaa !3
  %46 = getelementptr inbounds nuw %struct.Curl_llist, ptr %45, i32 0, i32 1
  store ptr null, ptr %46, align 8, !tbaa !15
  br label %52

47:                                               ; preds = %34
  %48 = load ptr, ptr %3, align 8, !tbaa !16
  %49 = getelementptr inbounds nuw %struct.Curl_llist_node, ptr %48, i32 0, i32 3
  %50 = load ptr, ptr %49, align 8, !tbaa !21
  %51 = getelementptr inbounds nuw %struct.Curl_llist_node, ptr %50, i32 0, i32 2
  store ptr null, ptr %51, align 8, !tbaa !20
  br label %52

52:                                               ; preds = %47, %44
  br label %86

53:                                               ; preds = %28
  %54 = load ptr, ptr %3, align 8, !tbaa !16
  %55 = getelementptr inbounds nuw %struct.Curl_llist_node, ptr %54, i32 0, i32 2
  %56 = load ptr, ptr %55, align 8, !tbaa !20
  %57 = icmp ne ptr %56, null
  br i1 %57, label %58, label %66

58:                                               ; preds = %53
  %59 = load ptr, ptr %3, align 8, !tbaa !16
  %60 = getelementptr inbounds nuw %struct.Curl_llist_node, ptr %59, i32 0, i32 3
  %61 = load ptr, ptr %60, align 8, !tbaa !21
  %62 = load ptr, ptr %3, align 8, !tbaa !16
  %63 = getelementptr inbounds nuw %struct.Curl_llist_node, ptr %62, i32 0, i32 2
  %64 = load ptr, ptr %63, align 8, !tbaa !20
  %65 = getelementptr inbounds nuw %struct.Curl_llist_node, ptr %64, i32 0, i32 3
  store ptr %61, ptr %65, align 8, !tbaa !21
  br label %66

66:                                               ; preds = %58, %53
  %67 = load ptr, ptr %3, align 8, !tbaa !16
  %68 = getelementptr inbounds nuw %struct.Curl_llist_node, ptr %67, i32 0, i32 3
  %69 = load ptr, ptr %68, align 8, !tbaa !21
  %70 = icmp ne ptr %69, null
  br i1 %70, label %77, label %71

71:                                               ; preds = %66
  %72 = load ptr, ptr %3, align 8, !tbaa !16
  %73 = getelementptr inbounds nuw %struct.Curl_llist_node, ptr %72, i32 0, i32 2
  %74 = load ptr, ptr %73, align 8, !tbaa !20
  %75 = load ptr, ptr %5, align 8, !tbaa !3
  %76 = getelementptr inbounds nuw %struct.Curl_llist, ptr %75, i32 0, i32 1
  store ptr %74, ptr %76, align 8, !tbaa !15
  br label %85

77:                                               ; preds = %66
  %78 = load ptr, ptr %3, align 8, !tbaa !16
  %79 = getelementptr inbounds nuw %struct.Curl_llist_node, ptr %78, i32 0, i32 2
  %80 = load ptr, ptr %79, align 8, !tbaa !20
  %81 = load ptr, ptr %3, align 8, !tbaa !16
  %82 = getelementptr inbounds nuw %struct.Curl_llist_node, ptr %81, i32 0, i32 3
  %83 = load ptr, ptr %82, align 8, !tbaa !21
  %84 = getelementptr inbounds nuw %struct.Curl_llist_node, ptr %83, i32 0, i32 2
  store ptr %80, ptr %84, align 8, !tbaa !20
  br label %85

85:                                               ; preds = %77, %71
  br label %86

86:                                               ; preds = %85, %52
  %87 = load ptr, ptr %5, align 8, !tbaa !3
  %88 = getelementptr inbounds nuw %struct.Curl_llist, ptr %87, i32 0, i32 3
  %89 = load i64, ptr %88, align 8, !tbaa !9
  %90 = add i64 %89, -1
  store i64 %90, ptr %88, align 8, !tbaa !9
  br label %91

91:                                               ; preds = %86, %25
  %92 = load ptr, ptr %3, align 8, !tbaa !16
  %93 = getelementptr inbounds nuw %struct.Curl_llist_node, ptr %92, i32 0, i32 1
  %94 = load ptr, ptr %93, align 8, !tbaa !17
  store ptr %94, ptr %4, align 8, !tbaa !8
  %95 = load ptr, ptr %3, align 8, !tbaa !16
  %96 = getelementptr inbounds nuw %struct.Curl_llist_node, ptr %95, i32 0, i32 0
  store ptr null, ptr %96, align 8, !tbaa !19
  %97 = load ptr, ptr %3, align 8, !tbaa !16
  %98 = getelementptr inbounds nuw %struct.Curl_llist_node, ptr %97, i32 0, i32 1
  store ptr null, ptr %98, align 8, !tbaa !17
  %99 = load ptr, ptr %3, align 8, !tbaa !16
  %100 = getelementptr inbounds nuw %struct.Curl_llist_node, ptr %99, i32 0, i32 2
  store ptr null, ptr %100, align 8, !tbaa !20
  %101 = load ptr, ptr %3, align 8, !tbaa !16
  %102 = getelementptr inbounds nuw %struct.Curl_llist_node, ptr %101, i32 0, i32 3
  store ptr null, ptr %102, align 8, !tbaa !21
  %103 = load ptr, ptr %4, align 8, !tbaa !8
  store ptr %103, ptr %2, align 8
  store i32 1, ptr %6, align 4
  br label %104

104:                                              ; preds = %91, %9
  call void @llvm.lifetime.end.p0(i64 8, ptr %5) #2
  call void @llvm.lifetime.end.p0(i64 8, ptr %4) #2
  %105 = load ptr, ptr %2, align 8
  ret ptr %105
}