; Function Attrs: mustprogress nofree norecurse nosync nounwind willreturn memory(readwrite, inaccessiblemem: none) uwtable
define hidden ptr @Curl_node_take_elem(ptr noundef %0) local_unnamed_addr #1 {
  %.not = icmp eq ptr %0, null
  br i1 %.not, label %30, label %2

2:                                                ; preds = %1
  %3 = load ptr, ptr %0, align 8, !tbaa !14
  %.not30 = icmp eq ptr %3, null
  br i1 %.not30, label %27, label %4

4:                                                ; preds = %2
  %5 = load ptr, ptr %3, align 8, !tbaa !15
  %6 = icmp eq ptr %0, %5
  br i1 %6, label %7, label %14

7:                                                ; preds = %4
  %8 = getelementptr inbounds nuw i8, ptr %0, i64 24
  %9 = load ptr, ptr %8, align 8, !tbaa !18
  store ptr %9, ptr %3, align 8, !tbaa !15
  %.not33 = icmp eq ptr %9, null
  br i1 %.not33, label %10, label %12

10:                                               ; preds = %7
  %11 = getelementptr inbounds nuw i8, ptr %3, i64 8
  store ptr null, ptr %11, align 8, !tbaa !16
  br label %23

12:                                               ; preds = %7
  %13 = getelementptr inbounds nuw i8, ptr %9, i64 16
  store ptr null, ptr %13, align 8, !tbaa !19
  br label %23

14:                                               ; preds = %4
  %15 = getelementptr inbounds nuw i8, ptr %0, i64 16
  %16 = load ptr, ptr %15, align 8, !tbaa !19
  %.not31 = icmp eq ptr %16, null
  %.phi.trans.insert = getelementptr inbounds nuw i8, ptr %0, i64 24
  %.pre = load ptr, ptr %.phi.trans.insert, align 8, !tbaa !18
  br i1 %.not31, label %._crit_edge, label %17

17:                                               ; preds = %14
  %18 = getelementptr inbounds nuw i8, ptr %16, i64 24
  store ptr %.pre, ptr %18, align 8, !tbaa !18
  br label %._crit_edge

._crit_edge:                                      ; preds = %14, %17
  %.not32 = icmp eq ptr %.pre, null
  br i1 %.not32, label %19, label %21

19:                                               ; preds = %._crit_edge
  %20 = getelementptr inbounds nuw i8, ptr %3, i64 8
  store ptr %16, ptr %20, align 8, !tbaa !16
  br label %23

21:                                               ; preds = %._crit_edge
  %22 = getelementptr inbounds nuw i8, ptr %.pre, i64 16
  store ptr %16, ptr %22, align 8, !tbaa !19
  br label %23

23:                                               ; preds = %19, %21, %10, %12
  %24 = getelementptr inbounds nuw i8, ptr %3, i64 24
  %25 = load i64, ptr %24, align 8, !tbaa !3
  %26 = add i64 %25, -1
  store i64 %26, ptr %24, align 8, !tbaa !3
  br label %27

27:                                               ; preds = %23, %2
  %28 = getelementptr inbounds nuw i8, ptr %0, i64 8
  %29 = load ptr, ptr %28, align 8, !tbaa !11
  tail call void @llvm.memset.p0.i64(ptr noundef nonnull align 8 dereferenceable(32) %0, i8 0, i64 32, i1 false)
  br label %30

30:                                               ; preds = %1, %27
  %.0 = phi ptr [ %29, %27 ], [ null, %1 ]
  ret ptr %.0
}